; Function Attrs: mustprogress nofree norecurse nosync nounwind willreturn memory(read, argmem: readwrite, inaccessiblemem: none) uwtable
define noundef ptr @_ZN2cv15line_descriptor23BinaryDescriptorMatcher15SparseHashtable5queryEmPi(ptr noundef nonnull readonly align 8 captures(none) dereferenceable(40) %0, i64 noundef %1, ptr noundef writeonly captures(none) initializes((0, 4)) %2) local_unnamed_addr #12 align 2 {
  %4 = lshr i64 %1, 5
  %5 = load ptr, ptr %0, align 8, !tbaa !92
  %6 = getelementptr inbounds nuw %"class.cv::line_descriptor::BinaryDescriptorMatcher::BucketGroup", ptr %5, i64 %4
  %7 = trunc i64 %1 to i32
  %8 = and i32 %7, 31
  %9 = load i32, ptr %6, align 8, !tbaa !100
  %10 = shl nuw i32 1, %8
  %11 = and i32 %9, %10
  %.not.i = icmp eq i32 %11, 0
  br i1 %.not.i, label %33, label %12

12:                                               ; preds = %3
  %13 = add i32 %10, -1
  %14 = and i32 %9, %13
  %15 = tail call range(i32 0, 33) i32 @llvm.ctpop.i32(i32 %14)
  %16 = tail call range(i32 0, 33) i32 @llvm.ctpop.i32(i32 %9)
  %17 = getelementptr inbounds nuw i8, ptr %6, i64 8
  %18 = load ptr, ptr %17, align 8, !tbaa !96
  %19 = zext nneg i32 %15 to i64
  %20 = getelementptr inbounds nuw i32, ptr %18, i64 %19
  %21 = getelementptr inbounds nuw i8, ptr %20, i64 12
  %22 = load i32, ptr %21, align 4, !tbaa !30
  %23 = getelementptr inbounds nuw i8, ptr %20, i64 8
  %24 = load i32, ptr %23, align 4, !tbaa !30
  %25 = sub i32 %22, %24
  store i32 %25, ptr %2, align 4, !tbaa !30
  %26 = getelementptr inbounds nuw i8, ptr %18, i64 8
  %27 = zext nneg i32 %16 to i64
  %28 = getelementptr inbounds nuw i32, ptr %26, i64 %27
  %29 = getelementptr inbounds nuw i8, ptr %28, i64 4
  %30 = load i32, ptr %23, align 4, !tbaa !30
  %31 = sext i32 %30 to i64
  %32 = getelementptr inbounds i32, ptr %29, i64 %31
  br label %_ZN2cv15line_descriptor23BinaryDescriptorMatcher11BucketGroup5queryEiPi.exit

33:                                               ; preds = %3
  store i32 0, ptr %2, align 4, !tbaa !30
  br label %_ZN2cv15line_descriptor23BinaryDescriptorMatcher11BucketGroup5queryEiPi.exit

_ZN2cv15line_descriptor23BinaryDescriptorMatcher11BucketGroup5queryEiPi.exit: ; preds = %12, %33
  %.0.i = phi ptr [ %32, %12 ], [ null, %33 ]
  ret ptr %.0.i
}